(i__main__
LogFile
p0
(dp1
S'_installed_files'
p2
(dp3
S'../../../../../../../../../sw/Gaudi/releases/GAUDI/GAUDI_v27r1/GaudiPolicy/cmt/fragments/__init__.py'
p4
S'../../../InstallArea/x86_64-slc6-gcc49-opt/python/DaVinciUser/__init__.py'
p5
sS'../../../Phys/DaVinciUser/x86_64-slc6-gcc49-opt/libDaVinciUser.so'
p6
S'../../../InstallArea/x86_64-slc6-gcc49-opt/lib/libDaVinciUser.so'
p7
sS'../../../Phys/DaVinciUser/x86_64-slc6-gcc49-opt/genConf/DaVinciUser'
p8
(dp9
S'../../../../Phys/DaVinciUser/x86_64-slc6-gcc49-opt/genConf/DaVinciUser/DaVinciUserConf.py'
p10
S'../../../InstallArea/x86_64-slc6-gcc49-opt/python/DaVinciUser/DaVinciUserConf.py'
p11
ssS'../../../../../../../../../../../cvmfs/lhcb.cern.ch/lib/lhcb/GAUDI/GAUDI_v27r1/GaudiPolicy/cmt/fragments/__init__.py'
p12
S'../../../InstallArea/x86_64-slc6-gcc49-opt/python/DaVinciUser/__init__.py'
p13
ssb.